; ModuleID = '10/2212.c'
source_filename = "10/2212.c"
target datalayout = "e-m:e-p270:32:32-p271:32:32-p272:64:64-i64:64-f80:128-n8:16:32:64-S128"
target triple = "x86_64-pc-linux-gnu"

@.str = private unnamed_addr constant [3 x i8] c"%d\00", align 1
@.str.1 = private unnamed_addr constant [5 x i8] c"\0A%d\0A\00", align 1

; Function Attrs: noinline nounwind uwtable
define dso_local i32 @main() #0 {
  %1 = alloca i32, align 4
  %2 = alloca i32, align 4
  %3 = alloca [25 x [2 x i32]], align 16
  %4 = alloca i32, align 4
  %5 = alloca i32, align 4
  %6 = alloca i32, align 4
  store i32 0, i32* %1, align 4
  store i32 0, i32* %2, align 4
  store i32 0, i32* %6, align 4
  %7 = call i32 (i8*, ...) @__isoc99_scanf(i8* getelementptr inbounds ([3 x i8], [3 x i8]* @.str, i64 0, i64 0), i32* %2)
  store i32 0, i32* %4, align 4
  br label %8

8:                                                ; preds = %22, %0
  %9 = load i32, i32* %4, align 4
  %10 = load i32, i32* %2, align 4
  %11 = icmp slt i32 %9, %10
  br i1 %11, label %12, label %25

12:                                               ; preds = %8
  %13 = load i32, i32* %4, align 4
  %14 = sext i32 %13 to i64
  %15 = getelementptr inbounds [25 x [2 x i32]], [25 x [2 x i32]]* %3, i64 0, i64 %14
  %16 = getelementptr inbounds [2 x i32], [2 x i32]* %15, i64 0, i64 0
  %17 = call i32 (i8*, ...) @__isoc99_scanf(i8* getelementptr inbounds ([3 x i8], [3 x i8]* @.str, i64 0, i64 0), i32* %16)
  %18 = load i32, i32* %4, align 4
  %19 = sext i32 %18 to i64
  %20 = getelementptr inbounds [25 x [2 x i32]], [25 x [2 x i32]]* %3, i64 0, i64 %19
  %21 = getelementptr inbounds [2 x i32], [2 x i32]* %20, i64 0, i64 1
  store i32 1, i32* %21, align 4
  br label %22

22:                                               ; preds = %12
  %23 = load i32, i32* %4, align 4
  %24 = add nsw i32 %23, 1
  store i32 %24, i32* %4, align 4
  br label %8

25:                                               ; preds = %8
  store i32 0, i32* %4, align 4
  br label %26

26:                                               ; preds = %31, %25
  %27 = load i32, i32* %4, align 4
  %28 = load i32, i32* %2, align 4
  %29 = icmp slt i32 %27, %28
  br i1 %29, label %30, label %34

30:                                               ; preds = %26
  br label %31

31:                                               ; preds = %30
  %32 = load i32, i32* %4, align 4
  %33 = add nsw i32 %32, 1
  store i32 %33, i32* %4, align 4
  br label %26

34:                                               ; preds = %26
  store i32 0, i32* %4, align 4
  br label %35

35:                                               ; preds = %87, %34
  %36 = load i32, i32* %4, align 4
  %37 = load i32, i32* %2, align 4
  %38 = icmp slt i32 %36, %37
  br i1 %38, label %39, label %90

39:                                               ; preds = %35
  %40 = load i32, i32* %4, align 4
  %41 = sub nsw i32 %40, 1
  store i32 %41, i32* %5, align 4
  br label %42

42:                                               ; preds = %83, %39
  %43 = load i32, i32* %5, align 4
  %44 = icmp sge i32 %43, 0
  br i1 %44, label %45, label %86

45:                                               ; preds = %42
  %46 = load i32, i32* %4, align 4
  %47 = sext i32 %46 to i64
  %48 = getelementptr inbounds [25 x [2 x i32]], [25 x [2 x i32]]* %3, i64 0, i64 %47
  %49 = getelementptr inbounds [2 x i32], [2 x i32]* %48, i64 0, i64 0
  %50 = load i32, i32* %49, align 8
  %51 = load i32, i32* %5, align 4
  %52 = sext i32 %51 to i64
  %53 = getelementptr inbounds [25 x [2 x i32]], [25 x [2 x i32]]* %3, i64 0, i64 %52
  %54 = getelementptr inbounds [2 x i32], [2 x i32]* %53, i64 0, i64 0
  %55 = load i32, i32* %54, align 8
  %56 = icmp sle i32 %50, %55
  br i1 %56, label %57, label %82

57:                                               ; preds = %45
  %58 = load i32, i32* %4, align 4
  %59 = sext i32 %58 to i64
  %60 = getelementptr inbounds [25 x [2 x i32]], [25 x [2 x i32]]* %3, i64 0, i64 %59
  %61 = getelementptr inbounds [2 x i32], [2 x i32]* %60, i64 0, i64 1
  %62 = load i32, i32* %61, align 4
  %63 = load i32, i32* %5, align 4
  %64 = sext i32 %63 to i64
  %65 = getelementptr inbounds [25 x [2 x i32]], [25 x [2 x i32]]* %3, i64 0, i64 %64
  %66 = getelementptr inbounds [2 x i32], [2 x i32]* %65, i64 0, i64 1
  %67 = load i32, i32* %66, align 4
  %68 = add nsw i32 %67, 1
  %69 = icmp slt i32 %62, %68
  br i1 %69, label %70, label %81

70:                                               ; preds = %57
  %71 = load i32, i32* %5, align 4
  %72 = sext i32 %71 to i64
  %73 = getelementptr inbounds [25 x [2 x i32]], [25 x [2 x i32]]* %3, i64 0, i64 %72
  %74 = getelementptr inbounds [2 x i32], [2 x i32]* %73, i64 0, i64 1
  %75 = load i32, i32* %74, align 4
  %76 = add nsw i32 %75, 1
  %77 = load i32, i32* %4, align 4
  %78 = sext i32 %77 to i64
  %79 = getelementptr inbounds [25 x [2 x i32]], [25 x [2 x i32]]* %3, i64 0, i64 %78
  %80 = getelementptr inbounds [2 x i32], [2 x i32]* %79, i64 0, i64 1
  store i32 %76, i32* %80, align 4
  br label %81

81:                                               ; preds = %70, %57
  br label %82

82:                                               ; preds = %81, %45
  br label %83

83:                                               ; preds = %82
  %84 = load i32, i32* %5, align 4
  %85 = add nsw i32 %84, -1
  store i32 %85, i32* %5, align 4
  br label %42

86:                                               ; preds = %42
  br label %87

87:                                               ; preds = %86
  %88 = load i32, i32* %4, align 4
  %89 = add nsw i32 %88, 1
  store i32 %89, i32* %4, align 4
  br label %35

90:                                               ; preds = %35
  store i32 0, i32* %6, align 4
  store i32 0, i32* %4, align 4
  br label %91

91:                                               ; preds = %110, %90
  %92 = load i32, i32* %4, align 4
  %93 = load i32, i32* %2, align 4
  %94 = icmp slt i32 %92, %93
  br i1 %94, label %95, label %113

95:                                               ; preds = %91
  %96 = load i32, i32* %6, align 4
  %97 = load i32, i32* %4, align 4
  %98 = sext i32 %97 to i64
  %99 = getelementptr inbounds [25 x [2 x i32]], [25 x [2 x i32]]* %3, i64 0, i64 %98
  %100 = getelementptr inbounds [2 x i32], [2 x i32]* %99, i64 0, i64 1
  %101 = load i32, i32* %100, align 4
  %102 = icmp slt i32 %96, %101
  br i1 %102, label %103, label %109

103:                                              ; preds = %95
  %104 = load i32, i32* %4, align 4
  %105 = sext i32 %104 to i64
  %106 = getelementptr inbounds [25 x [2 x i32]], [25 x [2 x i32]]* %3, i64 0, i64 %105
  %107 = getelementptr inbounds [2 x i32], [2 x i32]* %106, i64 0, i64 1
  %108 = load i32, i32* %107, align 4
  store i32 %108, i32* %6, align 4
  br label %109

109:                                              ; preds = %103, %95
  br label %110

110:                                              ; preds = %109
  %111 = load i32, i32* %4, align 4
  %112 = add nsw i32 %111, 1
  store i32 %112, i32* %4, align 4
  br label %91

113:                                              ; preds = %91
  %114 = load i32, i32* %6, align 4
  %115 = call i32 (i8*, ...) @printf(i8* getelementptr inbounds ([5 x i8], [5 x i8]* @.str.1, i64 0, i64 0), i32 %114)
  ret i32 0
}

declare dso_local i32 @__isoc99_scanf(i8*, ...) #1

declare dso_local i32 @printf(i8*, ...) #1


!llvm.module.flags = !{!0}
!llvm.ident = !{!1}

!0 = !{i32 1, !"wchar_size", i32 4}
!1 = !{!"clang version 10.0.0-4ubuntu1 "}
